Certificate:
    Data:
        Version: 3 (0x2)
        Serial Number: 1 (0x1)
    Signature Algorithm: sha256WithRSAEncryption
        Issuer: C=DE, ST=Berlin, L=Berlin, O=sudo.is, OU=sudo.is, CN=vpn.sudo.is/name=server/emailAddress=benedikt@inventati.org
        Validity
            Not Before: Nov 22 13:27:17 2016 GMT
            Not After : Nov 20 13:27:17 2026 GMT
        Subject: C=DE, ST=Berlin, L=Berlin, O=sudo.is, OU=sudo.is, CN=server/name=server/emailAddress=benedikt@inventati.org
        Subject Public Key Info:
            Public Key Algorithm: rsaEncryption
                Public-Key: (2048 bit)
                Modulus:
                    00:95:9a:35:92:23:0e:a7:02:5e:15:22:ed:22:6e:
                    1d:0e:a3:19:b4:3c:11:d4:e7:4d:5a:06:be:ba:9e:
                    a1:a1:be:ad:4d:55:e6:2a:7f:4f:2f:1b:89:31:24:
                    10:e5:be:83:44:d5:e8:e3:03:70:9b:cc:c7:53:a1:
                    b7:70:c5:14:07:f7:fc:a8:41:cc:f3:52:77:27:98:
                    f0:59:52:94:0b:db:ef:70:46:01:85:76:f2:cd:5b:
                    d5:29:c7:19:7d:71:3d:da:83:ae:34:61:8a:00:f3:
                    da:80:29:5c:66:ae:75:90:84:cb:c7:90:6c:c9:a4:
                    04:39:fc:46:5e:72:65:77:2a:ce:c3:33:ca:de:d1:
                    9b:5f:d4:00:a5:e3:04:3a:83:11:c1:26:b7:f0:85:
                    4c:ab:4a:8b:75:e0:43:be:09:f8:02:64:8a:e5:a3:
                    2f:c5:e5:9a:51:60:52:48:6c:e1:c3:a3:55:b2:9c:
                    88:22:85:5b:4e:1e:ed:70:f2:78:ff:e7:3a:f6:03:
                    dc:a4:13:c0:dc:55:77:a6:6a:82:4e:0b:ed:e2:42:
                    27:47:b8:b8:b7:06:68:6e:5d:88:31:fc:df:ca:71:
                    f8:c0:43:31:86:0c:d0:3c:77:15:18:50:1b:08:7e:
                    3a:12:ac:9f:f3:f1:36:ec:62:63:44:13:a1:b2:01:
                    5b:03
                Exponent: 65537 (0x10001)
        X509v3 extensions:
            X509v3 Basic Constraints: 
                CA:FALSE
            Netscape Cert Type: 
                SSL Server
            Netscape Comment: 
                Easy-RSA Generated Server Certificate
            X509v3 Subject Key Identifier: 
                D1:27:DE:8E:3E:EB:B6:03:41:CF:85:40:E5:21:D6:B9:8F:1D:0E:B5
            X509v3 Authority Key Identifier: 
                keyid:67:3F:E4:FD:6B:31:34:32:0B:18:54:01:B8:BA:02:AD:BC:4B:2F:72
                DirName:/C=DE/ST=Berlin/L=Berlin/O=sudo.is/OU=sudo.is/CN=vpn.sudo.is/name=server/emailAddress=benedikt@inventati.org
                serial:89:1E:DB:C7:48:28:B4:1D

            X509v3 Extended Key Usage: 
                TLS Web Server Authentication
            X509v3 Key Usage: 
                Digital Signature, Key Encipherment
            X509v3 Subject Alternative Name: 
                DNS:server
    Signature Algorithm: sha256WithRSAEncryption
         70:38:78:2f:d6:a0:8c:58:68:e1:cf:d9:f6:29:1a:dd:4b:63:
         b9:3f:f2:ce:3b:04:f3:36:45:5f:8c:44:7f:f6:a8:07:6f:f3:
         b5:25:5f:53:57:6a:34:f5:1d:14:14:be:1b:d3:e3:c8:d6:76:
         2d:a5:a1:32:9d:1d:94:23:06:7a:62:6d:8d:52:85:ef:e1:b0:
         3c:62:2b:51:f8:9e:50:53:80:76:fc:e3:f9:8e:7d:d6:bd:3a:
         69:4e:ea:2b:32:a0:08:80:a6:98:eb:4c:29:cf:cb:06:ed:0f:
         07:44:79:fe:85:a1:4b:33:55:42:37:92:ae:96:5e:02:bb:e9:
         78:16:3a:c7:1f:bf:19:c1:7c:56:cb:f0:ec:98:8f:2f:60:25:
         7c:92:54:90:2f:50:4a:30:f0:74:98:14:0b:4e:7d:e1:b4:2b:
         05:59:d6:83:45:6d:b8:7c:cc:d6:00:f2:58:20:d6:0f:ad:97:
         e7:5b:b2:e7:00:16:63:1a:ee:13:03:0f:10:75:e4:f7:80:7e:
         d5:d3:b3:8b:ce:d0:3d:b4:79:5d:da:f2:48:3c:1d:de:40:02:
         a2:a1:eb:bb:14:4e:31:fe:7f:79:30:dc:9d:c2:38:a0:1d:61:
         fb:44:01:c7:ba:89:e3:84:e4:c8:2f:19:fb:19:de:55:9a:d5:
         ce:c4:9b:44
-----BEGIN CERTIFICATE-----
MIIFQTCCBCmgAwIBAgIBATANBgkqhkiG9w0BAQsFADCBoTELMAkGA1UEBhMCREUx
DzANBgNVBAgTBkJlcmxpbjEPMA0GA1UEBxMGQmVybGluMRAwDgYDVQQKEwdzdWRv
LmlzMRAwDgYDVQQLEwdzdWRvLmlzMRQwEgYDVQQDEwt2cG4uc3Vkby5pczEPMA0G
A1UEKRMGc2VydmVyMSUwIwYJKoZIhvcNAQkBFhZiZW5lZGlrdEBpbnZlbnRhdGku
b3JnMB4XDTE2MTEyMjEzMjcxN1oXDTI2MTEyMDEzMjcxN1owgZwxCzAJBgNVBAYT
AkRFMQ8wDQYDVQQIEwZCZXJsaW4xDzANBgNVBAcTBkJlcmxpbjEQMA4GA1UEChMH
c3Vkby5pczEQMA4GA1UECxMHc3Vkby5pczEPMA0GA1UEAxMGc2VydmVyMQ8wDQYD
VQQpEwZzZXJ2ZXIxJTAjBgkqhkiG9w0BCQEWFmJlbmVkaWt0QGludmVudGF0aS5v
cmcwggEiMA0GCSqGSIb3DQEBAQUAA4IBDwAwggEKAoIBAQCVmjWSIw6nAl4VIu0i
bh0Ooxm0PBHU501aBr66nqGhvq1NVeYqf08vG4kxJBDlvoNE1ejjA3CbzMdTobdw
xRQH9/yoQczzUncnmPBZUpQL2+9wRgGFdvLNW9Upxxl9cT3ag640YYoA89qAKVxm
rnWQhMvHkGzJpAQ5/EZecmV3Ks7DM8re0Ztf1ACl4wQ6gxHBJrfwhUyrSot14EO+
CfgCZIrloy/F5ZpRYFJIbOHDo1WynIgihVtOHu1w8nj/5zr2A9ykE8DcVXemaoJO
C+3iQidHuLi3BmhuXYgx/N/KcfjAQzGGDNA8dxUYUBsIfjoSrJ/z8TbsYmNEE6Gy
AVsDAgMBAAGjggGFMIIBgTAJBgNVHRMEAjAAMBEGCWCGSAGG+EIBAQQEAwIGQDA0
BglghkgBhvhCAQ0EJxYlRWFzeS1SU0EgR2VuZXJhdGVkIFNlcnZlciBDZXJ0aWZp
Y2F0ZTAdBgNVHQ4EFgQU0Sfejj7rtgNBz4VA5SHWuY8dDrUwgdYGA1UdIwSBzjCB
y4AUZz/k/WsxNDILGFQBuLoCrbxLL3KhgaekgaQwgaExCzAJBgNVBAYTAkRFMQ8w
DQYDVQQIEwZCZXJsaW4xDzANBgNVBAcTBkJlcmxpbjEQMA4GA1UEChMHc3Vkby5p
czEQMA4GA1UECxMHc3Vkby5pczEUMBIGA1UEAxMLdnBuLnN1ZG8uaXMxDzANBgNV
BCkTBnNlcnZlcjElMCMGCSqGSIb3DQEJARYWYmVuZWRpa3RAaW52ZW50YXRpLm9y
Z4IJAIke28dIKLQdMBMGA1UdJQQMMAoGCCsGAQUFBwMBMAsGA1UdDwQEAwIFoDAR
BgNVHREECjAIggZzZXJ2ZXIwDQYJKoZIhvcNAQELBQADggEBAHA4eC/WoIxYaOHP
2fYpGt1LY7k/8s47BPM2RV+MRH/2qAdv87UlX1NXajT1HRQUvhvT48jWdi2loTKd
HZQjBnpibY1She/hsDxiK1H4nlBTgHb84/mOfda9OmlO6isyoAiAppjrTCnPywbt
DwdEef6FoUszVUI3kq6WXgK76XgWOscfvxnBfFbL8OyYjy9gJXySVJAvUEow8HSY
FAtOfeG0KwVZ1oNFbbh8zNYA8lgg1g+tl+dbsucAFmMa7hMDDxB15PeAftXTs4vO
0D20eV3a8kg8Hd5AAqKh67sUTjH+f3kw3J3COKAdYftEAce6ieOE5MgvGfsZ3lWa
1c7Em0Q=
-----END CERTIFICATE-----
